target datalayout = "e-m:e-p270:32:32-p271:32:32-p272:64:64-i64:64-i128:128-f80:128-n8:16:32:64-S128"
target triple = "x86_64-pc-linux-gnu"

%"class.icu_77::UnicodeString" = type { %"class.icu_77::Replaceable", %"union.icu_77::UnicodeString::StackBufferOrFields" }
%"class.icu_77::Replaceable" = type { %"class.icu_77::UObject" }
%"class.icu_77::UObject" = type { ptr }
%"union.icu_77::UnicodeString::StackBufferOrFields" = type { %struct.anon.0, [32 x i8] }
%struct.anon.0 = type { i16, i32, i32, ptr }
%"struct.icu_77::CollationData" = type <{ ptr, ptr, ptr, ptr, ptr, ptr, ptr, i32, i32, i32, i32, ptr, ptr, ptr, i32, i32, ptr, ptr, i32, [4 x i8], ptr, i32, [4 x i8] }>
%"class.icu_77::CollationDataBuilder" = type { %"class.icu_77::UObject", ptr, ptr, ptr, ptr, %"class.icu_77::UVector32", %"class.icu_77::UVector64", %"class.icu_77::UVector", %"class.icu_77::UnicodeSet", %"class.icu_77::UnicodeString", i32, [4 x i8], %"class.icu_77::UnicodeSet", i8, i8, i8, ptr, ptr }
%"class.icu_77::UVector32" = type { %"class.icu_77::UObject", i32, i32, i32, ptr }
%"class.icu_77::UVector64" = type { %"class.icu_77::UObject", i32, i32, i32, ptr }
%"class.icu_77::UVector" = type { %"class.icu_77::UObject", i32, i32, ptr, ptr, ptr }
%"class.icu_77::UnicodeSet" = type <{ %"class.icu_77::UnicodeFilter", ptr, i32, i32, i8, [7 x i8], ptr, ptr, i32, [4 x i8], ptr, i32, [4 x i8], ptr, ptr, [25 x i32], [4 x i8] }>
%"class.icu_77::UnicodeFilter" = type { %"class.icu_77::UnicodeFunctor", %"class.icu_77::UnicodeMatcher" }
%"class.icu_77::UnicodeFunctor" = type { %"class.icu_77::UObject" }
%"class.icu_77::UnicodeMatcher" = type { ptr }
%struct.UTrie2 = type { ptr, ptr, ptr, i32, i32, i16, i16, i32, i32, i32, i32, ptr, i32, i8, i8, i16, ptr }
%"class.icu_77::UnicodeSetIterator" = type { %"class.icu_77::UObject", i32, i32, ptr, ptr, i32, i32, i32, i32, i32, i32, ptr }

; Function Attrs: mustprogress nounwind uwtable
define linkonce_odr noundef i32 @_ZNK6icu_7713CollationData7getCE32Ei(ptr noundef nonnull align 8 dereferenceable(140) %0, i32 noundef %1) #1 comdat align 2 {
  %3 = alloca ptr, align 8
  %4 = alloca i32, align 4
  store ptr %0, ptr %3, align 8, !tbaa !63
  store i32 %1, ptr %4, align 4, !tbaa !57
  %5 = load ptr, ptr %3, align 8
  %6 = getelementptr inbounds nuw %"struct.icu_77::CollationData", ptr %5, i32 0, i32 0
  %7 = load ptr, ptr %6, align 8, !tbaa !65
  %8 = getelementptr inbounds nuw %struct.UTrie2, ptr %7, i32 0, i32 2
  %9 = load ptr, ptr %8, align 8, !tbaa !111
  %10 = load i32, ptr %4, align 4, !tbaa !57
  %11 = icmp ult i32 %10, 55296
  br i1 %11, label %12, label %28

12:                                               ; preds = %2
  %13 = getelementptr inbounds nuw %"struct.icu_77::CollationData", ptr %5, i32 0, i32 0
  %14 = load ptr, ptr %13, align 8, !tbaa !65
  %15 = getelementptr inbounds nuw %struct.UTrie2, ptr %14, i32 0, i32 0
  %16 = load ptr, ptr %15, align 8, !tbaa !115
  %17 = load i32, ptr %4, align 4, !tbaa !57
  %18 = ashr i32 %17, 5
  %19 = add nsw i32 0, %18
  %20 = sext i32 %19 to i64
  %21 = getelementptr inbounds i16, ptr %16, i64 %20
  %22 = load i16, ptr %21, align 2, !tbaa !116
  %23 = zext i16 %22 to i32
  %24 = shl i32 %23, 2
  %25 = load i32, ptr %4, align 4, !tbaa !57
  %26 = and i32 %25, 31
  %27 = add nsw i32 %24, %26
  br label %100

28:                                               ; preds = %2
  %29 = load i32, ptr %4, align 4, !tbaa !57
  %30 = icmp ule i32 %29, 65535
  br i1 %30, label %31, label %50

31:                                               ; preds = %28
  %32 = getelementptr inbounds nuw %"struct.icu_77::CollationData", ptr %5, i32 0, i32 0
  %33 = load ptr, ptr %32, align 8, !tbaa !65
  %34 = getelementptr inbounds nuw %struct.UTrie2, ptr %33, i32 0, i32 0
  %35 = load ptr, ptr %34, align 8, !tbaa !115
  %36 = load i32, ptr %4, align 4, !tbaa !57
  %37 = icmp sle i32 %36, 56319
  %38 = select i1 %37, i32 320, i32 0
  %39 = load i32, ptr %4, align 4, !tbaa !57
  %40 = ashr i32 %39, 5
  %41 = add nsw i32 %38, %40
  %42 = sext i32 %41 to i64
  %43 = getelementptr inbounds i16, ptr %35, i64 %42
  %44 = load i16, ptr %43, align 2, !tbaa !116
  %45 = zext i16 %44 to i32
  %46 = shl i32 %45, 2
  %47 = load i32, ptr %4, align 4, !tbaa !57
  %48 = and i32 %47, 31
  %49 = add nsw i32 %46, %48
  br label %98

50:                                               ; preds = %28
  %51 = load i32, ptr %4, align 4, !tbaa !57
  %52 = icmp ugt i32 %51, 1114111
  br i1 %52, label %53, label %54

53:                                               ; preds = %50
  br label %96

54:                                               ; preds = %50
  %55 = load i32, ptr %4, align 4, !tbaa !57
  %56 = getelementptr inbounds nuw %"struct.icu_77::CollationData", ptr %5, i32 0, i32 0
  %57 = load ptr, ptr %56, align 8, !tbaa !65
  %58 = getelementptr inbounds nuw %struct.UTrie2, ptr %57, i32 0, i32 9
  %59 = load i32, ptr %58, align 4, !tbaa !117
  %60 = icmp sge i32 %55, %59
  br i1 %60, label %61, label %66

61:                                               ; preds = %54
  %62 = getelementptr inbounds nuw %"struct.icu_77::CollationData", ptr %5, i32 0, i32 0
  %63 = load ptr, ptr %62, align 8, !tbaa !65
  %64 = getelementptr inbounds nuw %struct.UTrie2, ptr %63, i32 0, i32 10
  %65 = load i32, ptr %64, align 8, !tbaa !118
  br label %94

66:                                               ; preds = %54
  %67 = getelementptr inbounds nuw %"struct.icu_77::CollationData", ptr %5, i32 0, i32 0
  %68 = load ptr, ptr %67, align 8, !tbaa !65
  %69 = getelementptr inbounds nuw %struct.UTrie2, ptr %68, i32 0, i32 0
  %70 = load ptr, ptr %69, align 8, !tbaa !115
  %71 = getelementptr inbounds nuw %"struct.icu_77::CollationData", ptr %5, i32 0, i32 0
  %72 = load ptr, ptr %71, align 8, !tbaa !65
  %73 = getelementptr inbounds nuw %struct.UTrie2, ptr %72, i32 0, i32 0
  %74 = load ptr, ptr %73, align 8, !tbaa !115
  %75 = load i32, ptr %4, align 4, !tbaa !57
  %76 = ashr i32 %75, 11
  %77 = add nsw i32 2080, %76
  %78 = sext i32 %77 to i64
  %79 = getelementptr inbounds i16, ptr %74, i64 %78
  %80 = load i16, ptr %79, align 2, !tbaa !116
  %81 = zext i16 %80 to i32
  %82 = load i32, ptr %4, align 4, !tbaa !57
  %83 = ashr i32 %82, 5
  %84 = and i32 %83, 63
  %85 = add nsw i32 %81, %84
  %86 = sext i32 %85 to i64
  %87 = getelementptr inbounds i16, ptr %70, i64 %86
  %88 = load i16, ptr %87, align 2, !tbaa !116
  %89 = zext i16 %88 to i32
  %90 = shl i32 %89, 2
  %91 = load i32, ptr %4, align 4, !tbaa !57
  %92 = and i32 %91, 31
  %93 = add nsw i32 %90, %92
  br label %94

94:                                               ; preds = %66, %61
  %95 = phi i32 [ %65, %61 ], [ %93, %66 ]
  br label %96

96:                                               ; preds = %94, %53
  %97 = phi i32 [ 128, %53 ], [ %95, %94 ]
  br label %98

98:                                               ; preds = %96, %31
  %99 = phi i32 [ %49, %31 ], [ %97, %96 ]
  br label %100

100:                                              ; preds = %98, %12
  %101 = phi i32 [ %27, %12 ], [ %99, %98 ]
  %102 = sext i32 %101 to i64
  %103 = getelementptr inbounds i32, ptr %9, i64 %102
  %104 = load i32, ptr %103, align 4, !tbaa !57
  ret i32 %104
}

; Function Attrs: inlinehint mustprogress nounwind uwtable
define linkonce_odr noundef i32 @_ZNK6icu_7718UnicodeSetIterator12getCodepointEv(ptr noundef nonnull align 8 dereferenceable(64) %0) #3 comdat align 2 {
  %2 = alloca ptr, align 8
  store ptr %0, ptr %2, align 8, !tbaa !186
  %3 = load ptr, ptr %2, align 8
  %4 = getelementptr inbounds nuw %"class.icu_77::UnicodeSetIterator", ptr %3, i32 0, i32 1
  %5 = load i32, ptr %4, align 8, !tbaa !188
  ret i32 %5
}

; Function Attrs: inlinehint mustprogress nounwind uwtable
define linkonce_odr noundef signext i8 @_ZNK6icu_7718UnicodeSetIterator8isStringEv(ptr noundef nonnull align 8 dereferenceable(64) %0) #3 comdat align 2 {
  %2 = alloca ptr, align 8
  store ptr %0, ptr %2, align 8, !tbaa !186
  %3 = load ptr, ptr %2, align 8
  %4 = getelementptr inbounds nuw %"class.icu_77::UnicodeSetIterator", ptr %3, i32 0, i32 1
  %5 = load i32, ptr %4, align 8, !tbaa !188
  %6 = icmp slt i32 %5, 0
  %7 = zext i1 %6 to i8
  ret i8 %7
}

; Function Attrs: inlinehint mustprogress nounwind uwtable
define internal noundef signext i8 @_ZL9U_FAILURE10UErrorCode(i32 noundef %0) #3 {
  %2 = alloca i32, align 4
  store i32 %0, ptr %2, align 4, !tbaa !97
  %3 = load i32, ptr %2, align 4, !tbaa !97
  %4 = icmp sgt i32 %3, 0
  %5 = zext i1 %4 to i8
  ret i8 %5
}

; Function Attrs: mustprogress uwtable
define void @_ZN6icu_7720CollationDataBuilder8optimizeERKNS_10UnicodeSetER10UErrorCode(ptr noundef nonnull align 8 dereferenceable(640) %0, ptr noundef nonnull align 8 dereferenceable(200) %1, ptr noundef nonnull align 4 dereferenceable(4) %2) #4 align 2 personality ptr @__gxx_personality_v0 {
  %4 = alloca ptr, align 8
  %5 = alloca ptr, align 8
  %6 = alloca ptr, align 8
  %7 = alloca %"class.icu_77::UnicodeSetIterator", align 8
  %8 = alloca ptr, align 8
  %9 = alloca i32, align 4
  %10 = alloca i32, align 4
  %11 = alloca i32, align 4
  store ptr %0, ptr %4, align 8, !tbaa !13
  store ptr %1, ptr %5, align 8, !tbaa !184
  store ptr %2, ptr %6, align 8, !tbaa !8
  %12 = load ptr, ptr %4, align 8
  %13 = load ptr, ptr %6, align 8, !tbaa !8
  %14 = load i32, ptr %13, align 4, !tbaa !97
  %15 = call noundef signext i8 @_ZL9U_FAILURE10UErrorCode(i32 noundef %14)
  %16 = icmp ne i8 %15, 0
  br i1 %16, label %21, label %17

17:                                               ; preds = %3
  %18 = load ptr, ptr %5, align 8, !tbaa !184
  %19 = call noundef signext i8 @_ZNK6icu_7710UnicodeSet7isEmptyEv(ptr noundef nonnull align 8 dereferenceable(200) %18)
  %20 = icmp ne i8 %19, 0
  br i1 %20, label %21, label %22

21:                                               ; preds = %17, %3
  br label %82

22:                                               ; preds = %17
  call void @llvm.lifetime.start.p0(i64 64, ptr %7) #11
  %23 = load ptr, ptr %5, align 8, !tbaa !184
  call void @_ZN6icu_7718UnicodeSetIteratorC1ERKNS_10UnicodeSetE(ptr noundef nonnull align 8 dereferenceable(64) %7, ptr noundef nonnull align 8 dereferenceable(200) %23)
  br label %24

24:                                               ; preds = %78, %22
  %25 = invoke noundef signext i8 @_ZN6icu_7718UnicodeSetIterator4nextEv(ptr noundef nonnull align 8 dereferenceable(64) %7)
          to label %26 unwind label %66

26:                                               ; preds = %24
  %27 = icmp ne i8 %25, 0
  br i1 %27, label %28, label %33

28:                                               ; preds = %26
  %29 = invoke noundef signext i8 @_ZNK6icu_7718UnicodeSetIterator8isStringEv(ptr noundef nonnull align 8 dereferenceable(64) %7)
          to label %30 unwind label %66

30:                                               ; preds = %28
  %31 = icmp ne i8 %29, 0
  %32 = xor i1 %31, true
  br label %33

33:                                               ; preds = %30, %26
  %34 = phi i1 [ false, %26 ], [ %32, %30 ]
  br i1 %34, label %35, label %80

35:                                               ; preds = %33
  call void @llvm.lifetime.start.p0(i64 4, ptr %10) #11
  %36 = invoke noundef i32 @_ZNK6icu_7718UnicodeSetIterator12getCodepointEv(ptr noundef nonnull align 8 dereferenceable(64) %7)
          to label %37 unwind label %70

37:                                               ; preds = %35
  store i32 %36, ptr %10, align 4, !tbaa !57
  call void @llvm.lifetime.start.p0(i64 4, ptr %11) #11
  %38 = getelementptr inbounds nuw %"class.icu_77::CollationDataBuilder", ptr %12, i32 0, i32 4
  %39 = load ptr, ptr %38, align 8, !tbaa !99
  %40 = load i32, ptr %10, align 4, !tbaa !57
  %41 = invoke i32 @utrie2_get32_77(ptr noundef %39, i32 noundef %40)
          to label %42 unwind label %74

42:                                               ; preds = %37
  store i32 %41, ptr %11, align 4, !tbaa !57
  %43 = load i32, ptr %11, align 4, !tbaa !57
  %44 = icmp eq i32 %43, 192
  br i1 %44, label %45, label %78

45:                                               ; preds = %42
  %46 = getelementptr inbounds nuw %"class.icu_77::CollationDataBuilder", ptr %12, i32 0, i32 2
  %47 = load ptr, ptr %46, align 8, !tbaa !55
  %48 = getelementptr inbounds nuw %"class.icu_77::CollationDataBuilder", ptr %12, i32 0, i32 2
  %49 = load ptr, ptr %48, align 8, !tbaa !55
  %50 = load i32, ptr %10, align 4, !tbaa !57
  %51 = invoke noundef i32 @_ZNK6icu_7713CollationData7getCE32Ei(ptr noundef nonnull align 8 dereferenceable(140) %49, i32 noundef %50)
          to label %52 unwind label %74

52:                                               ; preds = %45
  %53 = invoke noundef i32 @_ZNK6icu_7713CollationData12getFinalCE32Ej(ptr noundef nonnull align 8 dereferenceable(140) %47, i32 noundef %51)
          to label %54 unwind label %74

54:                                               ; preds = %52
  store i32 %53, ptr %11, align 4, !tbaa !57
  %55 = load i32, ptr %10, align 4, !tbaa !57
  %56 = load i32, ptr %11, align 4, !tbaa !57
  %57 = load ptr, ptr %6, align 8, !tbaa !8
  %58 = invoke noundef i32 @_ZN6icu_7720CollationDataBuilder16copyFromBaseCE32EijaR10UErrorCode(ptr noundef nonnull align 8 dereferenceable(640) %12, i32 noundef %55, i32 noundef %56, i8 noundef signext 1, ptr noundef nonnull align 4 dereferenceable(4) %57)
          to label %59 unwind label %74

59:                                               ; preds = %54
  store i32 %58, ptr %11, align 4, !tbaa !57
  %60 = getelementptr inbounds nuw %"class.icu_77::CollationDataBuilder", ptr %12, i32 0, i32 4
  %61 = load ptr, ptr %60, align 8, !tbaa !99
  %62 = load i32, ptr %10, align 4, !tbaa !57
  %63 = load i32, ptr %11, align 4, !tbaa !57
  %64 = load ptr, ptr %6, align 8, !tbaa !8
  invoke void @utrie2_set32_77(ptr noundef %61, i32 noundef %62, i32 noundef %63, ptr noundef %64)
          to label %65 unwind label %74

65:                                               ; preds = %59
  br label %78

66:                                               ; preds = %28, %24
  %67 = landingpad { ptr, i32 }
          cleanup
  %68 = extractvalue { ptr, i32 } %67, 0
  store ptr %68, ptr %8, align 8
  %69 = extractvalue { ptr, i32 } %67, 1
  store i32 %69, ptr %9, align 4
  br label %83

70:                                               ; preds = %35
  %71 = landingpad { ptr, i32 }
          cleanup
  %72 = extractvalue { ptr, i32 } %71, 0
  store ptr %72, ptr %8, align 8
  %73 = extractvalue { ptr, i32 } %71, 1
  store i32 %73, ptr %9, align 4
  br label %79

74:                                               ; preds = %59, %54, %52, %45, %37
  %75 = landingpad { ptr, i32 }
          cleanup
  %76 = extractvalue { ptr, i32 } %75, 0
  store ptr %76, ptr %8, align 8
  %77 = extractvalue { ptr, i32 } %75, 1
  store i32 %77, ptr %9, align 4
  call void @llvm.lifetime.end.p0(i64 4, ptr %11) #11
  br label %79

78:                                               ; preds = %65, %42
  call void @llvm.lifetime.end.p0(i64 4, ptr %11) #11
  call void @llvm.lifetime.end.p0(i64 4, ptr %10) #11
  br label %24, !llvm.loop !185

79:                                               ; preds = %74, %70
  call void @llvm.lifetime.end.p0(i64 4, ptr %10) #11
  br label %83

80:                                               ; preds = %33
  %81 = getelementptr inbounds nuw %"class.icu_77::CollationDataBuilder", ptr %12, i32 0, i32 13
  store i8 1, ptr %81, align 8, !tbaa !133
  call void @_ZN6icu_7718UnicodeSetIteratorD1Ev(ptr noundef nonnull align 8 dereferenceable(64) %7) #11
  call void @llvm.lifetime.end.p0(i64 64, ptr %7) #11
  br label %82

82:                                               ; preds = %80, %21
  ret void

83:                                               ; preds = %79, %66
  call void @_ZN6icu_7718UnicodeSetIteratorD1Ev(ptr noundef nonnull align 8 dereferenceable(64) %7) #11
  call void @llvm.lifetime.end.p0(i64 64, ptr %7) #11
  br label %84

84:                                               ; preds = %83
  %85 = load ptr, ptr %8, align 8
  %86 = load i32, ptr %9, align 4
  %87 = insertvalue { ptr, i32 } poison, ptr %85, 0
  %88 = insertvalue { ptr, i32 } %87, i32 %86, 1
  resume { ptr, i32 } %88
}