; Function Attrs: mustprogress uwtable
define void @_ZN6icu_7720CollationDataBuilder8optimizeERKNS_10UnicodeSetER10UErrorCode(ptr noundef nonnull align 8 dereferenceable(640) %0, ptr noundef nonnull align 8 dereferenceable(200) %1, ptr noundef nonnull align 4 dereferenceable(4) %2) local_unnamed_addr #6 align 2 personality ptr @__gxx_personality_v0 {
  %4 = alloca %"class.icu_77::UnicodeSetIterator", align 8
  %5 = load i32, ptr %2, align 4, !tbaa !76
  %6 = icmp slt i32 %5, 1
  br i1 %6, label %7, label %94

7:                                                ; preds = %3
  %8 = tail call noundef signext i8 @_ZNK6icu_7710UnicodeSet7isEmptyEv(ptr noundef nonnull align 8 dereferenceable(200) %1)
  %.not15 = icmp eq i8 %8, 0
  br i1 %.not15, label %9, label %94

9:                                                ; preds = %7
  call void @llvm.lifetime.start.p0(i64 64, ptr nonnull %4) #19
  call void @_ZN6icu_7718UnicodeSetIteratorC1ERKNS_10UnicodeSetE(ptr noundef nonnull align 8 dereferenceable(64) %4, ptr noundef nonnull align 8 dereferenceable(200) %1)
  %10 = getelementptr inbounds nuw i8, ptr %4, i64 8
  %11 = getelementptr inbounds nuw i8, ptr %0, i64 32
  %12 = getelementptr inbounds nuw i8, ptr %0, i64 16
  br label %13

13:                                               ; preds = %.backedge, %9
  %14 = invoke noundef signext i8 @_ZN6icu_7718UnicodeSetIterator4nextEv(ptr noundef nonnull align 8 dereferenceable(64) %4)
          to label %15 unwind label %89

15:                                               ; preds = %13
  %.not16 = icmp eq i8 %14, 0
  br i1 %.not16, label %.critedge, label %16

16:                                               ; preds = %15
  %17 = load i32, ptr %10, align 8, !tbaa !158
  %.not17 = icmp sgt i32 %17, -1
  br i1 %.not17, label %18, label %.critedge

18:                                               ; preds = %16
  %19 = load ptr, ptr %11, align 8, !tbaa !80
  %20 = invoke i32 @utrie2_get32_77(ptr noundef %19, i32 noundef %17)
          to label %21 unwind label %91

21:                                               ; preds = %18
  %22 = icmp eq i32 %20, 192
  br i1 %22, label %23, label %.backedge

23:                                               ; preds = %21
  %24 = load ptr, ptr %12, align 8, !tbaa !63
  %25 = load ptr, ptr %24, align 8, !tbaa !3
  %26 = getelementptr inbounds nuw i8, ptr %25, i64 16
  %27 = load ptr, ptr %26, align 8, !tbaa !81
  %28 = icmp samesign ult i32 %17, 55296
  br i1 %28, label %29, label %39

29:                                               ; preds = %23
  %30 = load ptr, ptr %25, align 8, !tbaa !85
  %31 = lshr i32 %17, 5
  %32 = zext nneg i32 %31 to i64
  %33 = getelementptr inbounds nuw i16, ptr %30, i64 %32
  %34 = load i16, ptr %33, align 2, !tbaa !86
  %35 = zext i16 %34 to i32
  %36 = shl nuw nsw i32 %35, 2
  %37 = and i32 %17, 31
  %38 = add nuw nsw i32 %36, %37
  br label %_ZNK6icu_7713CollationData7getCE32Ei.exit

39:                                               ; preds = %23
  %40 = icmp samesign ult i32 %17, 65536
  br i1 %40, label %41, label %54

41:                                               ; preds = %39
  %42 = load ptr, ptr %25, align 8, !tbaa !85
  %43 = icmp samesign ult i32 %17, 56320
  %44 = select i1 %43, i32 320, i32 0
  %45 = lshr i32 %17, 5
  %46 = add nuw nsw i32 %44, %45
  %47 = zext nneg i32 %46 to i64
  %48 = getelementptr inbounds nuw i16, ptr %42, i64 %47
  %49 = load i16, ptr %48, align 2, !tbaa !86
  %50 = zext i16 %49 to i32
  %51 = shl nuw nsw i32 %50, 2
  %52 = and i32 %17, 31
  %53 = add nuw nsw i32 %51, %52
  br label %_ZNK6icu_7713CollationData7getCE32Ei.exit

54:                                               ; preds = %39
  %55 = icmp samesign ugt i32 %17, 1114111
  br i1 %55, label %_ZNK6icu_7713CollationData7getCE32Ei.exit, label %56

56:                                               ; preds = %54
  %57 = getelementptr inbounds nuw i8, ptr %25, i64 44
  %58 = load i32, ptr %57, align 4, !tbaa !87
  %.not.i = icmp slt i32 %17, %58
  br i1 %.not.i, label %62, label %59

59:                                               ; preds = %56
  %60 = getelementptr inbounds nuw i8, ptr %25, i64 48
  %61 = load i32, ptr %60, align 8, !tbaa !88
  br label %_ZNK6icu_7713CollationData7getCE32Ei.exit

62:                                               ; preds = %56
  %63 = load ptr, ptr %25, align 8, !tbaa !85
  %64 = lshr i32 %17, 11
  %65 = zext nneg i32 %64 to i64
  %66 = getelementptr inbounds nuw i16, ptr %63, i64 %65
  %67 = getelementptr inbounds nuw i8, ptr %66, i64 4160
  %68 = load i16, ptr %67, align 2, !tbaa !86
  %69 = zext i16 %68 to i32
  %70 = lshr i32 %17, 5
  %71 = and i32 %70, 63
  %72 = add nuw nsw i32 %71, %69
  %73 = zext nneg i32 %72 to i64
  %74 = getelementptr inbounds nuw i16, ptr %63, i64 %73
  %75 = load i16, ptr %74, align 2, !tbaa !86
  %76 = zext i16 %75 to i32
  %77 = shl nuw nsw i32 %76, 2
  %78 = and i32 %17, 31
  %79 = add nuw nsw i32 %77, %78
  br label %_ZNK6icu_7713CollationData7getCE32Ei.exit

_ZNK6icu_7713CollationData7getCE32Ei.exit:        ; preds = %29, %41, %54, %59, %62
  %80 = phi i32 [ %38, %29 ], [ %53, %41 ], [ 128, %54 ], [ %61, %59 ], [ %79, %62 ]
  %81 = sext i32 %80 to i64
  %82 = getelementptr inbounds i32, ptr %27, i64 %81
  %83 = load i32, ptr %82, align 4, !tbaa !66
  %84 = invoke noundef i32 @_ZNK6icu_7713CollationData12getFinalCE32Ej(ptr noundef nonnull align 8 dereferenceable(140) %24, i32 noundef %83)
          to label %85 unwind label %91

85:                                               ; preds = %_ZNK6icu_7713CollationData7getCE32Ei.exit
  %86 = invoke noundef i32 @_ZN6icu_7720CollationDataBuilder16copyFromBaseCE32EijaR10UErrorCode(ptr noundef nonnull align 8 dereferenceable(640) %0, i32 noundef %17, i32 noundef %84, i8 noundef signext 1, ptr noundef nonnull align 4 dereferenceable(4) %2)
          to label %87 unwind label %91

87:                                               ; preds = %85
  %88 = load ptr, ptr %11, align 8, !tbaa !80
  invoke void @utrie2_set32_77(ptr noundef %88, i32 noundef %17, i32 noundef %86, ptr noundef nonnull %2)
          to label %.backedge unwind label %91

.backedge:                                        ; preds = %87, %21
  br label %13, !llvm.loop !160

89:                                               ; preds = %13
  %90 = landingpad { ptr, i32 }
          cleanup
  br label %95

91:                                               ; preds = %87, %85, %_ZNK6icu_7713CollationData7getCE32Ei.exit, %18
  %92 = landingpad { ptr, i32 }
          cleanup
  br label %95

.critedge:                                        ; preds = %15, %16
  %93 = getelementptr inbounds nuw i8, ptr %0, i64 616
  store i8 1, ptr %93, align 8, !tbaa !118
  call void @_ZN6icu_7718UnicodeSetIteratorD1Ev(ptr noundef nonnull align 8 dereferenceable(64) %4) #19
  call void @llvm.lifetime.end.p0(i64 64, ptr nonnull %4) #19
  br label %94

94:                                               ; preds = %3, %7, %.critedge
  ret void

95:                                               ; preds = %91, %89
  %.pn = phi { ptr, i32 } [ %92, %91 ], [ %90, %89 ]
  call void @_ZN6icu_7718UnicodeSetIteratorD1Ev(ptr noundef nonnull align 8 dereferenceable(64) %4) #19
  call void @llvm.lifetime.end.p0(i64 64, ptr nonnull %4) #19
  resume { ptr, i32 } %.pn
}